target datalayout = "e-m:e-p270:32:32-p271:32:32-p272:64:64-i64:64-i128:128-f80:128-n8:16:32:64-S128"
target triple = "x86_64-pc-linux-gnu"

%"class.std::__cxx11::basic_string" = type { %"struct.std::__cxx11::basic_string<char>::_Alloc_hider", i64, %union.anon }
%"struct.std::__cxx11::basic_string<char>::_Alloc_hider" = type { ptr }
%union.anon = type { i64, [8 x i8] }
%"struct.osgeo::proj::ExtentAndRes" = type { i8, double, double, double, double, double, double, double, double }
%"class.osgeo::proj::Grid" = type { ptr, %"class.std::__cxx11::basic_string", i32, i32, %"struct.osgeo::proj::ExtentAndRes" }
%"class.std::unique_ptr" = type { %"struct.std::__uniq_ptr_data" }
%"struct.std::__uniq_ptr_data" = type { %"class.std::__uniq_ptr_impl" }
%"class.std::__uniq_ptr_impl" = type { %"class.std::tuple" }
%"class.std::tuple" = type { %"struct.std::_Tuple_impl" }
%"struct.std::_Tuple_impl" = type { %"struct.std::_Head_base.17" }
%"struct.std::_Head_base.17" = type { ptr }
%"class.osgeo::proj::HorizontalShiftGrid" = type { %"class.osgeo::proj::Grid", %"class.std::vector.124" }
%"class.std::vector.124" = type { %"struct.std::_Vector_base.125" }
%"struct.std::_Vector_base.125" = type { %"struct.std::_Vector_base<std::unique_ptr<osgeo::proj::HorizontalShiftGrid>, std::allocator<std::unique_ptr<osgeo::proj::HorizontalShiftGrid>>>::_Vector_impl" }
%"struct.std::_Vector_base<std::unique_ptr<osgeo::proj::HorizontalShiftGrid>, std::allocator<std::unique_ptr<osgeo::proj::HorizontalShiftGrid>>>::_Vector_impl" = type { %"struct.std::_Vector_base<std::unique_ptr<osgeo::proj::HorizontalShiftGrid>, std::allocator<std::unique_ptr<osgeo::proj::HorizontalShiftGrid>>>::_Vector_impl_data" }
%"struct.std::_Vector_base<std::unique_ptr<osgeo::proj::HorizontalShiftGrid>, std::allocator<std::unique_ptr<osgeo::proj::HorizontalShiftGrid>>>::_Vector_impl_data" = type { ptr, ptr, ptr }
%"class.osgeo::proj::CTable2Grid" = type { %"class.osgeo::proj::HorizontalShiftGrid", ptr, %"class.std::unique_ptr" }

@_ZN5osgeo4projL15byte_order_testE = internal constant i32 1, align 4

; Function Attrs: mustprogress nounwind uwtable
define linkonce_odr hidden noundef nonnull align 8 dereferenceable(8) ptr @_ZNSt10_Head_baseILm0EPN5osgeo4proj4FileELb0EE7_M_headERKS4_(ptr noundef nonnull align 8 dereferenceable(8) %0) #0 comdat align 2 {
  %2 = alloca ptr, align 8
  store ptr %0, ptr %2, align 8, !tbaa !804
  %3 = load ptr, ptr %2, align 8, !tbaa !804
  %4 = getelementptr inbounds nuw %"struct.std::_Head_base.17", ptr %3, i32 0, i32 0
  ret ptr %4
}

; Function Attrs: mustprogress nounwind uwtable
define linkonce_odr hidden noundef nonnull align 8 dereferenceable(8) ptr @_ZNSt11_Tuple_implILm0EJPN5osgeo4proj4FileESt14default_deleteIS2_EEE7_M_headERKS6_(ptr noundef nonnull align 8 dereferenceable(8) %0) #0 comdat align 2 {
  %2 = alloca ptr, align 8
  store ptr %0, ptr %2, align 8, !tbaa !799
  %3 = load ptr, ptr %2, align 8, !tbaa !799
  %4 = call noundef nonnull align 8 dereferenceable(8) ptr @_ZNSt10_Head_baseILm0EPN5osgeo4proj4FileELb0EE7_M_headERKS4_(ptr noundef nonnull align 8 dereferenceable(8) %3) #6
  ret ptr %4
}

; Function Attrs: mustprogress nounwind uwtable
define linkonce_odr hidden noundef nonnull align 8 dereferenceable(8) ptr @_ZSt12__get_helperILm0EPN5osgeo4proj4FileEJSt14default_deleteIS2_EEERKT0_RKSt11_Tuple_implIXT_EJS6_DpT1_EE(ptr noundef nonnull align 8 dereferenceable(8) %0) #0 comdat {
  %2 = alloca ptr, align 8
  store ptr %0, ptr %2, align 8, !tbaa !799
  %3 = load ptr, ptr %2, align 8, !tbaa !799
  %4 = call noundef nonnull align 8 dereferenceable(8) ptr @_ZNSt11_Tuple_implILm0EJPN5osgeo4proj4FileESt14default_deleteIS2_EEE7_M_headERKS6_(ptr noundef nonnull align 8 dereferenceable(8) %3) #6
  ret ptr %4
}

; Function Attrs: mustprogress nounwind uwtable
define linkonce_odr hidden noundef nonnull align 8 dereferenceable(8) ptr @_ZSt3getILm0EJPN5osgeo4proj4FileESt14default_deleteIS2_EEERKNSt13tuple_elementIXT_ESt5tupleIJDpT0_EEE4typeERKSA_(ptr noundef nonnull align 8 dereferenceable(8) %0) #0 comdat {
  %2 = alloca ptr, align 8
  store ptr %0, ptr %2, align 8, !tbaa !797
  %3 = load ptr, ptr %2, align 8, !tbaa !797
  %4 = call noundef nonnull align 8 dereferenceable(8) ptr @_ZSt12__get_helperILm0EPN5osgeo4proj4FileEJSt14default_deleteIS2_EEERKT0_RKSt11_Tuple_implIXT_EJS6_DpT1_EE(ptr noundef nonnull align 8 dereferenceable(8) %3) #6
  ret ptr %4
}

; Function Attrs: mustprogress nounwind uwtable
define linkonce_odr hidden noundef ptr @_ZNKSt15__uniq_ptr_implIN5osgeo4proj4FileESt14default_deleteIS2_EE6_M_ptrEv(ptr noundef nonnull align 8 dereferenceable(8) %0) #0 comdat align 2 {
  %2 = alloca ptr, align 8
  store ptr %0, ptr %2, align 8, !tbaa !795
  %3 = load ptr, ptr %2, align 8
  %4 = getelementptr inbounds nuw %"class.std::__uniq_ptr_impl", ptr %3, i32 0, i32 0
  %5 = call noundef nonnull align 8 dereferenceable(8) ptr @_ZSt3getILm0EJPN5osgeo4proj4FileESt14default_deleteIS2_EEERKNSt13tuple_elementIXT_ESt5tupleIJDpT0_EEE4typeERKSA_(ptr noundef nonnull align 8 dereferenceable(8) %4) #6
  %6 = load ptr, ptr %5, align 8, !tbaa !80
  ret ptr %6
}

; Function Attrs: mustprogress nounwind uwtable
define linkonce_odr hidden noundef ptr @_ZNKSt10unique_ptrIN5osgeo4proj4FileESt14default_deleteIS2_EE3getEv(ptr noundef nonnull align 8 dereferenceable(8) %0) #0 comdat align 2 {
  %2 = alloca ptr, align 8
  store ptr %0, ptr %2, align 8, !tbaa !76
  %3 = load ptr, ptr %2, align 8
  %4 = getelementptr inbounds nuw %"class.std::unique_ptr", ptr %3, i32 0, i32 0
  %5 = call noundef ptr @_ZNKSt15__uniq_ptr_implIN5osgeo4proj4FileESt14default_deleteIS2_EE6_M_ptrEv(ptr noundef nonnull align 8 dereferenceable(8) %4) #6
  ret ptr %5
}

; Function Attrs: mustprogress nounwind uwtable
define internal void @_ZN5osgeo4projL10swap_wordsEPvmm(ptr noundef %0, i64 noundef %1, i64 noundef %2) #0 {
  %4 = alloca ptr, align 8
  %5 = alloca i64, align 8
  %6 = alloca i64, align 8
  %7 = alloca ptr, align 8
  %8 = alloca i64, align 8
  %9 = alloca i32, align 4
  %10 = alloca i64, align 8
  %11 = alloca i8, align 1
  store ptr %0, ptr %4, align 8, !tbaa !85
  store i64 %1, ptr %5, align 8, !tbaa !58
  store i64 %2, ptr %6, align 8, !tbaa !58
  call void @llvm.lifetime.start.p0(i64 8, ptr %7) #6
  %12 = load ptr, ptr %4, align 8, !tbaa !85
  store ptr %12, ptr %7, align 8, !tbaa !86
  call void @llvm.lifetime.start.p0(i64 8, ptr %8) #6
  store i64 0, ptr %8, align 8, !tbaa !58
  br label %13

13:                                               ; preds = %54, %3
  %14 = load i64, ptr %8, align 8, !tbaa !58
  %15 = load i64, ptr %6, align 8, !tbaa !58
  %16 = icmp ult i64 %14, %15
  br i1 %16, label %18, label %17

17:                                               ; preds = %13
  store i32 2, ptr %9, align 4
  call void @llvm.lifetime.end.p0(i64 8, ptr %8) #6
  br label %57

18:                                               ; preds = %13
  call void @llvm.lifetime.start.p0(i64 8, ptr %10) #6
  store i64 0, ptr %10, align 8, !tbaa !58
  br label %19

19:                                               ; preds = %47, %18
  %20 = load i64, ptr %10, align 8, !tbaa !58
  %21 = load i64, ptr %5, align 8, !tbaa !58
  %22 = udiv i64 %21, 2
  %23 = icmp ult i64 %20, %22
  br i1 %23, label %25, label %24

24:                                               ; preds = %19
  store i32 5, ptr %9, align 4
  call void @llvm.lifetime.end.p0(i64 8, ptr %10) #6
  br label %50

25:                                               ; preds = %19
  call void @llvm.lifetime.start.p0(i64 1, ptr %11) #6
  %26 = load ptr, ptr %7, align 8, !tbaa !86
  %27 = load i64, ptr %10, align 8, !tbaa !58
  %28 = getelementptr inbounds nuw i8, ptr %26, i64 %27
  %29 = load i8, ptr %28, align 1, !tbaa !84
  store i8 %29, ptr %11, align 1, !tbaa !84
  %30 = load ptr, ptr %7, align 8, !tbaa !86
  %31 = load i64, ptr %5, align 8, !tbaa !58
  %32 = load i64, ptr %10, align 8, !tbaa !58
  %33 = sub i64 %31, %32
  %34 = sub i64 %33, 1
  %35 = getelementptr inbounds nuw i8, ptr %30, i64 %34
  %36 = load i8, ptr %35, align 1, !tbaa !84
  %37 = load ptr, ptr %7, align 8, !tbaa !86
  %38 = load i64, ptr %10, align 8, !tbaa !58
  %39 = getelementptr inbounds nuw i8, ptr %37, i64 %38
  store i8 %36, ptr %39, align 1, !tbaa !84
  %40 = load i8, ptr %11, align 1, !tbaa !84
  %41 = load ptr, ptr %7, align 8, !tbaa !86
  %42 = load i64, ptr %5, align 8, !tbaa !58
  %43 = load i64, ptr %10, align 8, !tbaa !58
  %44 = sub i64 %42, %43
  %45 = sub i64 %44, 1
  %46 = getelementptr inbounds nuw i8, ptr %41, i64 %45
  store i8 %40, ptr %46, align 1, !tbaa !84
  call void @llvm.lifetime.end.p0(i64 1, ptr %11) #6
  br label %47

47:                                               ; preds = %25
  %48 = load i64, ptr %10, align 8, !tbaa !58
  %49 = add i64 %48, 1
  store i64 %49, ptr %10, align 8, !tbaa !58
  br label %19, !llvm.loop !87

50:                                               ; preds = %24
  %51 = load i64, ptr %5, align 8, !tbaa !58
  %52 = load ptr, ptr %7, align 8, !tbaa !86
  %53 = getelementptr inbounds nuw i8, ptr %52, i64 %51
  store ptr %53, ptr %7, align 8, !tbaa !86
  br label %54

54:                                               ; preds = %50
  %55 = load i64, ptr %8, align 8, !tbaa !58
  %56 = add i64 %55, 1
  store i64 %56, ptr %8, align 8, !tbaa !58
  br label %13, !llvm.loop !89

57:                                               ; preds = %17
  call void @llvm.lifetime.end.p0(i64 8, ptr %7) #6
  ret void
}

; Function Attrs: mustprogress nounwind uwtable
define linkonce_odr hidden noundef ptr @_ZNKSt10unique_ptrIN5osgeo4proj4FileESt14default_deleteIS2_EEptEv(ptr noundef nonnull align 8 dereferenceable(8) %0) #0 comdat align 2 {
  %2 = alloca ptr, align 8
  store ptr %0, ptr %2, align 8, !tbaa !76
  %3 = load ptr, ptr %2, align 8
  %4 = call noundef ptr @_ZNKSt10unique_ptrIN5osgeo4proj4FileESt14default_deleteIS2_EE3getEv(ptr noundef nonnull align 8 dereferenceable(8) %3) #6
  ret ptr %4
}

; Function Attrs: mustprogress uwtable
define hidden noundef zeroext i1 @_ZNK5osgeo4proj11CTable2Grid7valueAtEiibRfS2_(ptr noundef nonnull align 8 dereferenceable(160) %0, i32 noundef %1, i32 noundef %2, i1 noundef zeroext %3, ptr noundef nonnull align 4 dereferenceable(4) %4, ptr noundef nonnull align 4 dereferenceable(4) %5) unnamed_addr #1 align 2 {
  %7 = alloca i1, align 1
  %8 = alloca ptr, align 8
  %9 = alloca i32, align 4
  %10 = alloca i32, align 4
  %11 = alloca i8, align 1
  %12 = alloca ptr, align 8
  %13 = alloca ptr, align 8
  %14 = alloca [2 x float], align 4
  %15 = alloca i32, align 4
  store ptr %0, ptr %8, align 8, !tbaa !321
  store i32 %1, ptr %9, align 4, !tbaa !26
  store i32 %2, ptr %10, align 4, !tbaa !26
  %16 = zext i1 %3 to i8
  store i8 %16, ptr %11, align 1, !tbaa !38
  store ptr %4, ptr %12, align 8, !tbaa !50
  store ptr %5, ptr %13, align 8, !tbaa !50
  %17 = load ptr, ptr %8, align 8
  call void @llvm.lifetime.start.p0(i64 8, ptr %14) #6
  %18 = getelementptr inbounds nuw %"class.osgeo::proj::CTable2Grid", ptr %17, i32 0, i32 2
  %19 = call noundef ptr @_ZNKSt10unique_ptrIN5osgeo4proj4FileESt14default_deleteIS2_EEptEv(ptr noundef nonnull align 8 dereferenceable(8) %18) #6
  %20 = load i32, ptr %10, align 4, !tbaa !26
  %21 = getelementptr inbounds nuw %"class.osgeo::proj::Grid", ptr %17, i32 0, i32 2
  %22 = load i32, ptr %21, align 8, !tbaa !30
  %23 = mul nsw i32 %20, %22
  %24 = load i32, ptr %9, align 4, !tbaa !26
  %25 = add nsw i32 %23, %24
  %26 = sext i32 %25 to i64
  %27 = mul i64 8, %26
  %28 = add i64 160, %27
  %29 = load ptr, ptr %19, align 8, !tbaa !28
  %30 = getelementptr inbounds ptr, ptr %29, i64 4
  %31 = load ptr, ptr %30, align 8
  %32 = call noundef zeroext i1 %31(ptr noundef nonnull align 8 dereferenceable(73) %19, i64 noundef %28, i32 noundef 0)
  %33 = getelementptr inbounds nuw %"class.osgeo::proj::CTable2Grid", ptr %17, i32 0, i32 2
  %34 = call noundef ptr @_ZNKSt10unique_ptrIN5osgeo4proj4FileESt14default_deleteIS2_EEptEv(ptr noundef nonnull align 8 dereferenceable(8) %33) #6
  %35 = getelementptr inbounds [2 x float], ptr %14, i64 0, i64 0
  %36 = load ptr, ptr %34, align 8, !tbaa !28
  %37 = getelementptr inbounds ptr, ptr %36, i64 2
  %38 = load ptr, ptr %37, align 8
  %39 = call noundef i64 %38(ptr noundef nonnull align 8 dereferenceable(73) %34, ptr noundef %35, i64 noundef 8)
  %40 = icmp ne i64 %39, 8
  br i1 %40, label %41, label %44

41:                                               ; preds = %6
  %42 = getelementptr inbounds nuw %"class.osgeo::proj::CTable2Grid", ptr %17, i32 0, i32 1
  %43 = load ptr, ptr %42, align 8, !tbaa !323
  call void @_Z22proj_context_errno_setP6pj_ctxi(ptr noundef %43, i32 noundef 1029)
  store i1 false, ptr %7, align 1
  store i32 1, ptr %15, align 4
  br label %62

44:                                               ; preds = %6
  %45 = load i8, ptr @_ZN5osgeo4projL15byte_order_testE, align 4, !tbaa !84
  %46 = zext i8 %45 to i32
  %47 = icmp eq i32 1, %46
  br i1 %47, label %50, label %48

48:                                               ; preds = %44
  %49 = getelementptr inbounds [2 x float], ptr %14, i64 0, i64 0
  call void @_ZN5osgeo4projL10swap_wordsEPvmm(ptr noundef %49, i64 noundef 4, i64 noundef 2)
  br label %50

50:                                               ; preds = %48, %44
  %51 = getelementptr inbounds [2 x float], ptr %14, i64 0, i64 1
  %52 = load float, ptr %51, align 4, !tbaa !52
  %53 = load ptr, ptr %13, align 8, !tbaa !50
  store float %52, ptr %53, align 4, !tbaa !52
  %54 = load i8, ptr %11, align 1, !tbaa !38, !range !16, !noundef !17
  %55 = trunc i8 %54 to i1
  %56 = select i1 %55, i32 -1, i32 1
  %57 = sitofp i32 %56 to float
  %58 = getelementptr inbounds [2 x float], ptr %14, i64 0, i64 0
  %59 = load float, ptr %58, align 4, !tbaa !52
  %60 = fmul float %57, %59
  %61 = load ptr, ptr %12, align 8, !tbaa !50
  store float %60, ptr %61, align 4, !tbaa !52
  store i1 true, ptr %7, align 1
  store i32 1, ptr %15, align 4
  br label %62

62:                                               ; preds = %50, %41
  call void @llvm.lifetime.end.p0(i64 8, ptr %14) #6
  %63 = load i1, ptr %7, align 1
  ret i1 %63
}