; Function Attrs: mustprogress uwtable
define hidden noundef zeroext i1 @_ZNK5osgeo4proj11CTable2Grid7valueAtEiibRfS2_(ptr noundef nonnull readonly align 8 captures(none) dereferenceable(160) %0, i32 noundef %1, i32 noundef %2, i1 noundef zeroext %3, ptr noundef nonnull writeonly align 4 captures(none) dereferenceable(4) %4, ptr noundef nonnull writeonly align 4 captures(none) dereferenceable(4) %5) unnamed_addr #2 align 2 {
  %7 = alloca [2 x float], align 4
  call void @llvm.lifetime.start.p0(i64 8, ptr nonnull %7) #34
  %8 = getelementptr inbounds nuw i8, ptr %0, i64 152
  %9 = load ptr, ptr %8, align 8, !tbaa !80
  %10 = getelementptr inbounds nuw i8, ptr %0, i64 40
  %11 = load i32, ptr %10, align 8, !tbaa !31
  %12 = mul nsw i32 %11, %2
  %13 = add nsw i32 %12, %1
  %14 = sext i32 %13 to i64
  %15 = shl nsw i64 %14, 3
  %16 = add nsw i64 %15, 160
  %17 = load ptr, ptr %9, align 8, !tbaa !19
  %18 = getelementptr inbounds nuw i8, ptr %17, i64 32
  %19 = load ptr, ptr %18, align 8
  %20 = tail call noundef zeroext i1 %19(ptr noundef nonnull align 8 dereferenceable(73) %9, i64 noundef %16, i32 noundef 0)
  %21 = load ptr, ptr %8, align 8, !tbaa !80
  %22 = load ptr, ptr %21, align 8, !tbaa !19
  %23 = getelementptr inbounds nuw i8, ptr %22, i64 16
  %24 = load ptr, ptr %23, align 8
  %25 = call noundef i64 %24(ptr noundef nonnull align 8 dereferenceable(73) %21, ptr noundef nonnull %7, i64 noundef 8)
  %.not = icmp eq i64 %25, 8
  br i1 %.not, label %29, label %26

26:                                               ; preds = %6
  %27 = getelementptr inbounds nuw i8, ptr %0, i64 144
  %28 = load ptr, ptr %27, align 8, !tbaa !308
  call void @_Z22proj_context_errno_setP6pj_ctxi(ptr noundef %28, i32 noundef 1029)
  br label %35

29:                                               ; preds = %6
  %30 = getelementptr inbounds nuw i8, ptr %7, i64 4
  %31 = load float, ptr %30, align 4, !tbaa !38
  store float %31, ptr %5, align 4, !tbaa !38
  %32 = load float, ptr %7, align 4, !tbaa !38
  %33 = fneg float %32
  %34 = select i1 %3, float %33, float %32
  store float %34, ptr %4, align 4, !tbaa !38
  br label %35

35:                                               ; preds = %29, %26
  call void @llvm.lifetime.end.p0(i64 8, ptr nonnull %7) #34
  ret i1 %.not
}